; Function Attrs: mustprogress uwtable
define internal noundef zeroext i1 @_ZNSt17_Function_handlerIFvN18OpenImageIO_v2_6_03ROIEEZNS0_L8mul_implIhfhEEbRNS0_8ImageBufERKS4_S7_S1_iEUlS1_E_E10_M_managerERSt9_Any_dataRKSA_St18_Manager_operation(ptr nocapture noundef nonnull align 8 dereferenceable(16) %__dest, ptr nocapture noundef nonnull readonly align 8 dereferenceable(16) %__source, i32 noundef %__op) #5 align 2 {
entry:
  switch i32 %__op, label %sw.epilog [
    i32 0, label %sw.bb
    i32 1, label %sw.bb1
    i32 3, label %sw.bb6.i
    i32 2, label %sw.bb4.i
  ]

sw.bb:                                            ; preds = %entry
  store ptr @_ZTIZN18OpenImageIO_v2_6_0L8mul_implIhfhEEbRNS_8ImageBufERKS1_S4_NS_3ROIEiEUlS5_E_, ptr %__dest, align 8
  br label %sw.epilog

sw.bb1:                                           ; preds = %entry
  %__source.val = load ptr, ptr %__source, align 8
  store ptr %__source.val, ptr %__dest, align 8
  br label %sw.epilog

sw.bb4.i:                                         ; preds = %entry
  %__source.val5 = load ptr, ptr %__source, align 8
  %call.i.i.i = tail call noalias noundef nonnull dereferenceable(24) ptr @_Znwm(i64 noundef 24) #23
  tail call void @llvm.memcpy.p0.p0.i64(ptr noundef nonnull align 16 dereferenceable(24) %call.i.i.i, ptr noundef nonnull align 8 dereferenceable(24) %__source.val5, i64 24, i1 false)
  store ptr %call.i.i.i, ptr %__dest, align 8
  br label %sw.epilog

sw.bb6.i:                                         ; preds = %entry
  %__dest.val.i = load ptr, ptr %__dest, align 8
  %isnull.i.i = icmp eq ptr %__dest.val.i, null
  br i1 %isnull.i.i, label %sw.epilog, label %delete.notnull.i.i

delete.notnull.i.i:                               ; preds = %sw.bb6.i
  tail call void @_ZdlPv(ptr noundef nonnull %__dest.val.i) #22
  br label %sw.epilog

sw.epilog:                                        ; preds = %entry, %delete.notnull.i.i, %sw.bb6.i, %sw.bb4.i, %sw.bb1, %sw.bb
  ret i1 false
}